target datalayout = "e-m:e-p270:32:32-p271:32:32-p272:64:64-i64:64-i128:128-f80:128-n8:16:32:64-S128"
target triple = "x86_64-pc-linux-gnu"

%struct.repository = type { ptr, ptr, ptr, ptr, ptr, %struct.strmap, %struct.strmap, %struct.repo_path_cache, ptr, ptr, ptr, ptr, %struct.repo_settings, ptr, ptr, ptr, ptr, ptr, ptr, i32, i32, i32, ptr, ptr, i32, i32, i8 }
%struct.strmap = type { %struct.hashmap, ptr, i8 }
%struct.hashmap = type { ptr, ptr, ptr, i32, i32, i32, i32, i8 }
%struct.repo_path_cache = type { ptr, ptr, ptr, ptr, ptr, ptr, ptr }
%struct.repo_settings = type { i32, i32, i32, i32, i32, i32, i32, i32, i32, i32, i32, i32, ptr, i32, i32, i32, i32, i32, i32, i32, i64, i64, i64 }
%struct.raw_object_store = type { ptr, ptr, ptr, i32, ptr, ptr, i8, %union.pthread_mutex_t, ptr, i8, ptr, ptr, %struct.list_head, %struct.anon, %struct.hashmap, i64, i8 }
%union.pthread_mutex_t = type { %struct.__pthread_mutex_s }
%struct.__pthread_mutex_s = type { i32, i32, i32, i32, i32, i16, i16, %struct.__pthread_internal_list }
%struct.__pthread_internal_list = type { ptr, ptr }
%struct.list_head = type { ptr, ptr }
%struct.anon = type { ptr, i32 }
%struct.object_directory = type { ptr, [8 x i32], ptr, ptr, i32, i32, ptr }

@.str = private unnamed_addr constant [22 x i8] c"GIT_TEST_COMMIT_GRAPH\00", align 1

; Function Attrs: nounwind uwtable
define internal void @prepare_commit_graph_one(ptr noundef %0, ptr noundef %1) #0 {
  %3 = alloca ptr, align 8
  %4 = alloca ptr, align 8
  store ptr %0, ptr %3, align 8, !tbaa !8
  store ptr %1, ptr %4, align 8, !tbaa !44
  %5 = load ptr, ptr %3, align 8, !tbaa !8
  %6 = getelementptr inbounds nuw %struct.repository, ptr %5, i32 0, i32 2
  %7 = load ptr, ptr %6, align 8, !tbaa !11
  %8 = getelementptr inbounds nuw %struct.raw_object_store, ptr %7, i32 0, i32 8
  %9 = load ptr, ptr %8, align 8, !tbaa !135
  %10 = icmp ne ptr %9, null
  br i1 %10, label %11, label %12

11:                                               ; preds = %2
  br label %20

12:                                               ; preds = %2
  %13 = load ptr, ptr %3, align 8, !tbaa !8
  %14 = load ptr, ptr %4, align 8, !tbaa !44
  %15 = call ptr @read_commit_graph_one(ptr noundef %13, ptr noundef %14)
  %16 = load ptr, ptr %3, align 8, !tbaa !8
  %17 = getelementptr inbounds nuw %struct.repository, ptr %16, i32 0, i32 2
  %18 = load ptr, ptr %17, align 8, !tbaa !11
  %19 = getelementptr inbounds nuw %struct.raw_object_store, ptr %18, i32 0, i32 8
  store ptr %15, ptr %19, align 8, !tbaa !135
  br label %20

20:                                               ; preds = %12, %11
  ret void
}

; Function Attrs: nounwind uwtable
define internal i32 @prepare_commit_graph(ptr noundef %0) #0 {
  %2 = alloca i32, align 4
  %3 = alloca ptr, align 8
  %4 = alloca ptr, align 8
  %5 = alloca i32, align 4
  store ptr %0, ptr %3, align 8, !tbaa !8
  call void @llvm.lifetime.start.p0(i64 8, ptr %4) #12
  %6 = load ptr, ptr %3, align 8, !tbaa !8
  %7 = getelementptr inbounds nuw %struct.repository, ptr %6, i32 0, i32 0
  %8 = load ptr, ptr %7, align 8, !tbaa !136
  %9 = icmp ne ptr %8, null
  br i1 %9, label %10, label %15

10:                                               ; preds = %1
  %11 = load ptr, ptr %3, align 8, !tbaa !8
  %12 = getelementptr inbounds nuw %struct.repository, ptr %11, i32 0, i32 21
  %13 = load i32, ptr %12, align 8, !tbaa !137
  %14 = icmp ne i32 %13, 0
  br i1 %14, label %15, label %16

15:                                               ; preds = %10, %1
  store i32 0, ptr %2, align 4
  store i32 1, ptr %5, align 4
  br label %94

16:                                               ; preds = %10
  %17 = load ptr, ptr %3, align 8, !tbaa !8
  %18 = getelementptr inbounds nuw %struct.repository, ptr %17, i32 0, i32 2
  %19 = load ptr, ptr %18, align 8, !tbaa !11
  %20 = getelementptr inbounds nuw %struct.raw_object_store, ptr %19, i32 0, i32 9
  %21 = load i8, ptr %20, align 8
  %22 = and i8 %21, 1
  %23 = zext i8 %22 to i32
  %24 = icmp ne i32 %23, 0
  br i1 %24, label %25, label %35

25:                                               ; preds = %16
  %26 = load ptr, ptr %3, align 8, !tbaa !8
  %27 = getelementptr inbounds nuw %struct.repository, ptr %26, i32 0, i32 2
  %28 = load ptr, ptr %27, align 8, !tbaa !11
  %29 = getelementptr inbounds nuw %struct.raw_object_store, ptr %28, i32 0, i32 8
  %30 = load ptr, ptr %29, align 8, !tbaa !135
  %31 = icmp ne ptr %30, null
  %32 = xor i1 %31, true
  %33 = xor i1 %32, true
  %34 = zext i1 %33 to i32
  store i32 %34, ptr %2, align 4
  store i32 1, ptr %5, align 4
  br label %94

35:                                               ; preds = %16
  %36 = load ptr, ptr %3, align 8, !tbaa !8
  %37 = getelementptr inbounds nuw %struct.repository, ptr %36, i32 0, i32 2
  %38 = load ptr, ptr %37, align 8, !tbaa !11
  %39 = getelementptr inbounds nuw %struct.raw_object_store, ptr %38, i32 0, i32 9
  %40 = load i8, ptr %39, align 8
  %41 = and i8 %40, -2
  %42 = or i8 %41, 1
  store i8 %42, ptr %39, align 8
  %43 = load ptr, ptr %3, align 8, !tbaa !8
  call void @prepare_repo_settings(ptr noundef %43)
  %44 = call i32 @git_env_bool(ptr noundef @.str, i32 noundef 0)
  %45 = icmp ne i32 %44, 0
  br i1 %45, label %53, label %46

46:                                               ; preds = %35
  %47 = load ptr, ptr %3, align 8, !tbaa !8
  %48 = getelementptr inbounds nuw %struct.repository, ptr %47, i32 0, i32 12
  %49 = getelementptr inbounds nuw %struct.repo_settings, ptr %48, i32 0, i32 1
  %50 = load i32, ptr %49, align 4, !tbaa !138
  %51 = icmp ne i32 %50, 1
  br i1 %51, label %52, label %53

52:                                               ; preds = %46
  store i32 0, ptr %2, align 4
  store i32 1, ptr %5, align 4
  br label %94

53:                                               ; preds = %46, %35
  %54 = load ptr, ptr %3, align 8, !tbaa !8
  %55 = call i32 @commit_graph_compatible(ptr noundef %54)
  %56 = icmp ne i32 %55, 0
  br i1 %56, label %58, label %57

57:                                               ; preds = %53
  store i32 0, ptr %2, align 4
  store i32 1, ptr %5, align 4
  br label %94

58:                                               ; preds = %53
  %59 = load ptr, ptr %3, align 8, !tbaa !8
  call void @prepare_alt_odb(ptr noundef %59)
  %60 = load ptr, ptr %3, align 8, !tbaa !8
  %61 = getelementptr inbounds nuw %struct.repository, ptr %60, i32 0, i32 2
  %62 = load ptr, ptr %61, align 8, !tbaa !11
  %63 = getelementptr inbounds nuw %struct.raw_object_store, ptr %62, i32 0, i32 0
  %64 = load ptr, ptr %63, align 8, !tbaa !31
  store ptr %64, ptr %4, align 8, !tbaa !44
  br label %65

65:                                               ; preds = %80, %58
  %66 = load ptr, ptr %3, align 8, !tbaa !8
  %67 = getelementptr inbounds nuw %struct.repository, ptr %66, i32 0, i32 2
  %68 = load ptr, ptr %67, align 8, !tbaa !11
  %69 = getelementptr inbounds nuw %struct.raw_object_store, ptr %68, i32 0, i32 8
  %70 = load ptr, ptr %69, align 8, !tbaa !135
  %71 = icmp ne ptr %70, null
  br i1 %71, label %75, label %72

72:                                               ; preds = %65
  %73 = load ptr, ptr %4, align 8, !tbaa !44
  %74 = icmp ne ptr %73, null
  br label %75

75:                                               ; preds = %72, %65
  %76 = phi i1 [ false, %65 ], [ %74, %72 ]
  br i1 %76, label %77, label %84

77:                                               ; preds = %75
  %78 = load ptr, ptr %3, align 8, !tbaa !8
  %79 = load ptr, ptr %4, align 8, !tbaa !44
  call void @prepare_commit_graph_one(ptr noundef %78, ptr noundef %79)
  br label %80

80:                                               ; preds = %77
  %81 = load ptr, ptr %4, align 8, !tbaa !44
  %82 = getelementptr inbounds nuw %struct.object_directory, ptr %81, i32 0, i32 0
  %83 = load ptr, ptr %82, align 8, !tbaa !121
  store ptr %83, ptr %4, align 8, !tbaa !44
  br label %65, !llvm.loop !139

84:                                               ; preds = %75
  %85 = load ptr, ptr %3, align 8, !tbaa !8
  %86 = getelementptr inbounds nuw %struct.repository, ptr %85, i32 0, i32 2
  %87 = load ptr, ptr %86, align 8, !tbaa !11
  %88 = getelementptr inbounds nuw %struct.raw_object_store, ptr %87, i32 0, i32 8
  %89 = load ptr, ptr %88, align 8, !tbaa !135
  %90 = icmp ne ptr %89, null
  %91 = xor i1 %90, true
  %92 = xor i1 %91, true
  %93 = zext i1 %92 to i32
  store i32 %93, ptr %2, align 4
  store i32 1, ptr %5, align 4
  br label %94

94:                                               ; preds = %84, %57, %52, %25, %15
  call void @llvm.lifetime.end.p0(i64 8, ptr %4) #12
  %95 = load i32, ptr %2, align 4
  ret i32 %95
}