; Function Attrs: nounwind uwtable
define internal fastcc range(i32 0, 2) i32 @prepare_commit_graph(ptr noundef %0) unnamed_addr #0 {
  %2 = load ptr, ptr %0, align 8, !tbaa !124
  %.not = icmp eq ptr %2, null
  br i1 %.not, label %.loopexit, label %3

3:                                                ; preds = %1
  %4 = getelementptr inbounds nuw i8, ptr %0, i64 424
  %5 = load i32, ptr %4, align 8, !tbaa !125
  %.not17 = icmp eq i32 %5, 0
  br i1 %.not17, label %6, label %.loopexit

6:                                                ; preds = %3
  %7 = getelementptr inbounds nuw i8, ptr %0, i64 16
  %8 = load ptr, ptr %7, align 8, !tbaa !9
  %9 = getelementptr inbounds nuw i8, ptr %8, i64 104
  %10 = load i8, ptr %9, align 8
  %11 = and i8 %10, 1
  %.not18 = icmp eq i8 %11, 0
  br i1 %.not18, label %16, label %12

12:                                               ; preds = %6
  %13 = getelementptr inbounds nuw i8, ptr %8, i64 96
  %14 = load ptr, ptr %13, align 8, !tbaa !123
  %15 = icmp ne ptr %14, null
  br label %.loopexit

16:                                               ; preds = %6
  %17 = or disjoint i8 %10, 1
  store i8 %17, ptr %9, align 8
  tail call void @prepare_repo_settings(ptr noundef nonnull %0) #24
  %18 = tail call i32 @git_env_bool(ptr noundef nonnull @.str, i32 noundef 0) #24
  %.not19 = icmp eq i32 %18, 0
  br i1 %.not19, label %19, label %22

19:                                               ; preds = %16
  %20 = getelementptr inbounds nuw i8, ptr %0, i64 260
  %21 = load i32, ptr %20, align 4, !tbaa !126
  %.not20 = icmp eq i32 %21, 1
  br i1 %.not20, label %22, label %.loopexit

22:                                               ; preds = %19, %16
  %23 = tail call fastcc i32 @commit_graph_compatible(ptr noundef nonnull %0)
  %.not21 = icmp eq i32 %23, 0
  br i1 %.not21, label %.loopexit, label %24

24:                                               ; preds = %22
  tail call void @prepare_alt_odb(ptr noundef nonnull %0) #24
  %25 = load ptr, ptr %7, align 8, !tbaa !9
  %.024 = load ptr, ptr %25, align 8, !tbaa !110
  %26 = getelementptr inbounds nuw i8, ptr %25, i64 96
  %27 = load ptr, ptr %26, align 8, !tbaa !123
  %28 = icmp ne ptr %27, null
  %29 = icmp eq ptr %.024, null
  %.not2325 = select i1 %28, i1 true, i1 %29
  br i1 %.not2325, label %.loopexit, label %prepare_commit_graph_one.exit

prepare_commit_graph_one.exit:                    ; preds = %24, %prepare_commit_graph_one.exit
  %.026 = phi ptr [ %.0, %prepare_commit_graph_one.exit ], [ %.024, %24 ]
  %30 = tail call ptr @read_commit_graph_one(ptr noundef nonnull %0, ptr noundef nonnull %.026)
  %31 = load ptr, ptr %7, align 8, !tbaa !9
  %32 = getelementptr inbounds nuw i8, ptr %31, i64 96
  store ptr %30, ptr %32, align 8, !tbaa !123
  %.0 = load ptr, ptr %.026, align 8, !tbaa !110
  %33 = icmp ne ptr %30, null
  %34 = icmp eq ptr %.0, null
  %.not23 = select i1 %33, i1 true, i1 %34
  br i1 %.not23, label %.loopexit, label %prepare_commit_graph_one.exit, !llvm.loop !127

.loopexit:                                        ; preds = %prepare_commit_graph_one.exit, %24, %22, %19, %1, %3, %12
  %.016.shrunk = phi i1 [ %15, %12 ], [ false, %3 ], [ false, %1 ], [ false, %19 ], [ false, %22 ], [ %28, %24 ], [ %33, %prepare_commit_graph_one.exit ]
  %.016 = zext i1 %.016.shrunk to i32
  ret i32 %.016
}